target datalayout = "e-m:e-p270:32:32-p271:32:32-p272:64:64-i64:64-i128:128-f80:128-n8:16:32:64-S128"
target triple = "x86_64-pc-linux-gnu"

%class.ciMethodData = type { %class.ciMetadata, i32, i32, ptr, i32, i32, i32, i8, i8, i64, i64, i64, i64, i32, %"class.MethodData::CompilerCounters" }
%class.ciMetadata = type { %class.ciBaseObject.base, ptr }
%class.ciBaseObject.base = type <{ ptr, i32 }>
%"class.MethodData::CompilerCounters" = type { i32, i32, i32, %union.anon }
%union.anon = type { i64, [56 x i8] }
%class.ProfileData = type { ptr, ptr }

; Function Attrs: mustprogress nounwind uwtable
define linkonce_odr hidden noundef i32 @_ZN10DataLayout20header_size_in_cellsEv() #1 comdat align 2 {
  ret i32 1
}

; Function Attrs: mustprogress nounwind uwtable
define linkonce_odr hidden noundef i32 @_ZNK12ciMethodData9data_sizeEv(ptr noundef nonnull align 8 dereferenceable(176) %0) #1 comdat align 2 {
  %2 = alloca ptr, align 8
  store ptr %0, ptr %2, align 8
  %3 = load ptr, ptr %2, align 8
  %4 = getelementptr inbounds %class.ciMethodData, ptr %3, i32 0, i32 1
  %5 = load i32, ptr %4, align 8
  ret i32 %5
}

; Function Attrs: mustprogress nounwind uwtable
define linkonce_odr hidden noundef i32 @_ZN10DataLayout20header_size_in_bytesEv() #1 comdat align 2 {
  %1 = call noundef i32 @_ZN10DataLayout20header_size_in_cellsEv()
  %2 = mul nsw i32 %1, 8
  ret i32 %2
}

; Function Attrs: mustprogress nounwind uwtable
define linkonce_odr hidden noundef i64 @_Z13pointer_deltaPVKvS0_m(ptr noundef %0, ptr noundef %1, i64 noundef %2) #1 comdat {
  %4 = alloca ptr, align 8
  %5 = alloca ptr, align 8
  %6 = alloca i64, align 8
  store ptr %0, ptr %4, align 8
  store ptr %1, ptr %5, align 8
  store i64 %2, ptr %6, align 8
  %7 = load ptr, ptr %4, align 8
  %8 = ptrtoint ptr %7 to i64
  %9 = load ptr, ptr %5, align 8
  %10 = ptrtoint ptr %9 to i64
  %11 = sub i64 %8, %10
  %12 = load i64, ptr %6, align 8
  %13 = udiv i64 %11, %12
  ret i64 %13
}

; Function Attrs: mustprogress nounwind uwtable
define linkonce_odr hidden noundef ptr @_ZNK12ciMethodData14data_layout_atEi(ptr noundef nonnull align 8 dereferenceable(176) %0, i32 noundef %1) #1 comdat align 2 {
  %3 = alloca ptr, align 8
  %4 = alloca i32, align 4
  store ptr %0, ptr %3, align 8
  store i32 %1, ptr %4, align 4
  %5 = load ptr, ptr %3, align 8
  %6 = getelementptr inbounds %class.ciMethodData, ptr %5, i32 0, i32 3
  %7 = load ptr, ptr %6, align 8
  %8 = load i32, ptr %4, align 4
  %9 = sext i32 %8 to i64
  %10 = getelementptr inbounds i8, ptr %7, i64 %9
  ret ptr %10
}

; Function Attrs: mustprogress nounwind uwtable
define linkonce_odr hidden noundef zeroext i1 @_ZN12ciMethodData13out_of_boundsEi(ptr noundef nonnull align 8 dereferenceable(176) %0, i32 noundef %1) #1 comdat align 2 {
  %3 = alloca ptr, align 8
  %4 = alloca i32, align 4
  store ptr %0, ptr %3, align 8
  store i32 %1, ptr %4, align 4
  %5 = load ptr, ptr %3, align 8
  %6 = load i32, ptr %4, align 4
  %7 = call noundef i32 @_ZNK12ciMethodData9data_sizeEv(ptr noundef nonnull align 8 dereferenceable(176) %5)
  %8 = icmp sge i32 %6, %7
  ret i1 %8
}

; Function Attrs: mustprogress nounwind uwtable
define linkonce_odr hidden noundef i32 @_ZN10DataLayout21compute_size_in_bytesEi(i32 noundef %0) #1 comdat align 2 {
  %2 = alloca i32, align 4
  store i32 %0, ptr %2, align 4
  %3 = call noundef i32 @_ZN10DataLayout20header_size_in_bytesEv()
  %4 = load i32, ptr %2, align 4
  %5 = mul nsw i32 %4, 8
  %6 = add nsw i32 %3, %5
  ret i32 %6
}

; Function Attrs: mustprogress nounwind uwtable
define linkonce_odr hidden noundef i32 @_Z20pointer_delta_as_intIhEiPVKT_S2_(ptr noundef %0, ptr noundef %1) #1 comdat {
  %3 = alloca ptr, align 8
  %4 = alloca ptr, align 8
  %5 = alloca i64, align 8
  store ptr %0, ptr %3, align 8
  store ptr %1, ptr %4, align 8
  %6 = load ptr, ptr %3, align 8
  %7 = load ptr, ptr %4, align 8
  %8 = call noundef i64 @_Z13pointer_deltaPVKvS0_m(ptr noundef %6, ptr noundef %7, i64 noundef 1)
  store i64 %8, ptr %5, align 8
  %9 = load i64, ptr %5, align 8
  %10 = trunc i64 %9 to i32
  ret i32 %10
}

; Function Attrs: mustprogress nounwind uwtable
define hidden noundef ptr @_ZN12ciMethodData7data_atEi(ptr noundef nonnull align 8 dereferenceable(176) %0, i32 noundef %1) #1 align 2 {
  %3 = alloca ptr, align 8
  %4 = alloca ptr, align 8
  %5 = alloca i32, align 4
  %6 = alloca ptr, align 8
  store ptr %0, ptr %4, align 8
  store i32 %1, ptr %5, align 4
  %7 = load ptr, ptr %4, align 8
  %8 = load i32, ptr %5, align 4
  %9 = call noundef zeroext i1 @_ZN12ciMethodData13out_of_boundsEi(ptr noundef nonnull align 8 dereferenceable(176) %7, i32 noundef %8)
  br i1 %9, label %10, label %11

10:                                               ; preds = %2
  store ptr null, ptr %3, align 8
  br label %16

11:                                               ; preds = %2
  %12 = load i32, ptr %5, align 4
  %13 = call noundef ptr @_ZNK12ciMethodData14data_layout_atEi(ptr noundef nonnull align 8 dereferenceable(176) %7, i32 noundef %12)
  store ptr %13, ptr %6, align 8
  %14 = load ptr, ptr %6, align 8
  %15 = call noundef ptr @_ZN12ciMethodData9data_fromEP10DataLayout(ptr noundef nonnull align 8 dereferenceable(176) %7, ptr noundef %14)
  store ptr %15, ptr %3, align 8
  br label %16

16:                                               ; preds = %11, %10
  %17 = load ptr, ptr %3, align 8
  ret ptr %17
}

; Function Attrs: mustprogress nounwind uwtable
define linkonce_odr hidden noundef i32 @_ZN11ProfileData13size_in_bytesEv(ptr noundef nonnull align 8 dereferenceable(16) %0) #1 comdat align 2 {
  %2 = alloca ptr, align 8
  store ptr %0, ptr %2, align 8
  %3 = load ptr, ptr %2, align 8
  %4 = load ptr, ptr %3, align 8
  %5 = getelementptr inbounds ptr, ptr %4, i64 0
  %6 = load ptr, ptr %5, align 8
  %7 = call noundef i32 %6(ptr noundef nonnull align 8 dereferenceable(16) %3)
  %8 = call noundef i32 @_ZN10DataLayout21compute_size_in_bytesEi(i32 noundef %7)
  ret i32 %8
}

; Function Attrs: mustprogress nounwind uwtable
define linkonce_odr hidden noundef i32 @_ZNK12ciMethodData8dp_to_diEPh(ptr noundef nonnull align 8 dereferenceable(176) %0, ptr noundef %1) #1 comdat align 2 {
  %3 = alloca ptr, align 8
  %4 = alloca ptr, align 8
  store ptr %0, ptr %3, align 8
  store ptr %1, ptr %4, align 8
  %5 = load ptr, ptr %3, align 8
  %6 = load ptr, ptr %4, align 8
  %7 = getelementptr inbounds %class.ciMethodData, ptr %5, i32 0, i32 3
  %8 = load ptr, ptr %7, align 8
  %9 = call noundef i32 @_Z20pointer_delta_as_intIhEiPVKT_S2_(ptr noundef %6, ptr noundef %8)
  ret i32 %9
}

; Function Attrs: mustprogress nounwind uwtable
define linkonce_odr hidden noundef ptr @_ZN11ProfileData2dpEv(ptr noundef nonnull align 8 dereferenceable(16) %0) #1 comdat align 2 {
  %2 = alloca ptr, align 8
  store ptr %0, ptr %2, align 8
  %3 = load ptr, ptr %2, align 8
  %4 = getelementptr inbounds %class.ProfileData, ptr %3, i32 0, i32 1
  %5 = load ptr, ptr %4, align 8
  ret ptr %5
}

; Function Attrs: mustprogress nounwind uwtable
define hidden noundef ptr @_ZN12ciMethodData9next_dataEP11ProfileData(ptr noundef nonnull align 8 dereferenceable(176) %0, ptr noundef %1) #1 align 2 {
  %3 = alloca ptr, align 8
  %4 = alloca ptr, align 8
  %5 = alloca i32, align 4
  %6 = alloca i32, align 4
  %7 = alloca ptr, align 8
  store ptr %0, ptr %3, align 8
  store ptr %1, ptr %4, align 8
  %8 = load ptr, ptr %3, align 8
  %9 = load ptr, ptr %4, align 8
  %10 = call noundef ptr @_ZN11ProfileData2dpEv(ptr noundef nonnull align 8 dereferenceable(16) %9)
  %11 = call noundef i32 @_ZNK12ciMethodData8dp_to_diEPh(ptr noundef nonnull align 8 dereferenceable(176) %8, ptr noundef %10)
  store i32 %11, ptr %5, align 4
  %12 = load i32, ptr %5, align 4
  %13 = load ptr, ptr %4, align 8
  %14 = call noundef i32 @_ZN11ProfileData13size_in_bytesEv(ptr noundef nonnull align 8 dereferenceable(16) %13)
  %15 = add nsw i32 %12, %14
  store i32 %15, ptr %6, align 4
  %16 = load i32, ptr %6, align 4
  %17 = call noundef ptr @_ZN12ciMethodData7data_atEi(ptr noundef nonnull align 8 dereferenceable(176) %8, i32 noundef %16)
  store ptr %17, ptr %7, align 8
  %18 = load ptr, ptr %7, align 8
  ret ptr %18
}