; Function Attrs: mustprogress nounwind uwtable
define hidden noundef ptr @_ZN12ciMethodData9next_dataEP11ProfileData(ptr nocapture noundef nonnull readonly align 8 dereferenceable(176) %0, ptr noundef %1) local_unnamed_addr #1 align 2 {
  %3 = getelementptr inbounds i8, ptr %1, i64 8
  %4 = load ptr, ptr %3, align 8
  %5 = getelementptr inbounds i8, ptr %0, i64 32
  %6 = load ptr, ptr %5, align 8
  %7 = ptrtoint ptr %4 to i64
  %8 = ptrtoint ptr %6 to i64
  %9 = sub i64 %7, %8
  %10 = trunc i64 %9 to i32
  %11 = load ptr, ptr %1, align 8
  %12 = load ptr, ptr %11, align 8
  %13 = tail call noundef i32 %12(ptr noundef nonnull align 8 dereferenceable(16) %1) #12
  %14 = shl nsw i32 %13, 3
  %15 = add i32 %10, 8
  %16 = add i32 %15, %14
  %17 = getelementptr inbounds i8, ptr %0, i64 24
  %18 = load i32, ptr %17, align 8
  %.not.i = icmp sgt i32 %18, %16
  br i1 %.not.i, label %19, label %_ZN12ciMethodData7data_atEi.exit

19:                                               ; preds = %2
  %20 = load ptr, ptr %5, align 8
  %21 = sext i32 %16 to i64
  %22 = getelementptr inbounds i8, ptr %20, i64 %21
  %23 = tail call noundef ptr @_ZN12ciMethodData9data_fromEP10DataLayout(ptr nonnull readonly align 8 poison, ptr noundef %22)
  br label %_ZN12ciMethodData7data_atEi.exit

_ZN12ciMethodData7data_atEi.exit:                 ; preds = %2, %19
  %.0.i = phi ptr [ %23, %19 ], [ null, %2 ]
  ret ptr %.0.i
}